target datalayout = "e-m:e-p270:32:32-p271:32:32-p272:64:64-i64:64-i128:128-f80:128-n8:16:32:64-S128"
target triple = "x86_64-pc-linux-gnu"

%class.OopClosure = type { ptr }
%class.XMark = type <{ ptr, ptr, [48 x i8], %class.XMarkStackAllocator, %class.XMarkStripeSet, %class.XMarkTerminate, i8, [7 x i8], i64, i64, i64, i64, i64, i64, i32, [4 x i8] }>
%class.XMarkStackAllocator = type { %class.XStackList, [56 x i8], %class.XMarkStackSpace }
%class.XStackList = type { ptr }
%class.XMarkStackSpace = type { %class.XLock, i64, i64, i64 }
%class.XLock = type { %class.PlatformMutex }
%class.PlatformMutex = type { %union.pthread_mutex_t }
%union.pthread_mutex_t = type { %struct.__pthread_mutex_s }
%struct.__pthread_mutex_s = type { i32, i32, i32, i32, i32, i16, i16, %struct.__pthread_internal_list }
%struct.__pthread_internal_list = type { ptr, ptr }
%class.XMarkStripeSet = type { i64, i64, [48 x i8], [16 x %class.XMarkStripe] }
%class.XMarkStripe = type { %class.XStackList.0, [56 x i8], %class.XStackList.0, [56 x i8] }
%class.XStackList.0 = type { ptr }
%class.XMarkTerminate = type { i32, [60 x i8], i32, i32, [56 x i8] }
%class.ThreadClosure = type { ptr }
%class.XMarkRootsTask = type { %class.XTask, ptr, %class.SuspendibleThreadSetJoiner, [7 x i8], %class.XRootsIterator, %class.XMarkOopClosure, %class.ClaimingCLDToOopClosure, %class.XMarkThreadClosure, %class.XMarkNMethodClosure }
%class.XTask = type { ptr, %"class.XTask::Task" }
%"class.XTask::Task" = type { %class.WorkerTask.base, ptr }
%class.WorkerTask.base = type <{ ptr, ptr, i32 }>
%class.SuspendibleThreadSetJoiner = type { i8 }
%class.XRootsIterator = type { %class.XParallelApply, %class.XParallelApply.12, [6 x i8], %class.XParallelApply.13, %class.XParallelApply.15, [6 x i8] }
%class.XParallelApply = type <{ %class.XStrongOopStorageSetIterator, i8, [7 x i8] }>
%class.XStrongOopStorageSetIterator = type { %class.OopStorageSetStrongParState }
%class.OopStorageSetStrongParState = type { %class.OopStorageSetParState }
%class.OopStorageSetParState = type { %struct.ValueObjArray }
%struct.ValueObjArray = type { [5 x ptr], %class.ValueObjBlock }
%class.ValueObjBlock = type { %"class.OopStorage::ParState", %class.ValueObjBlock.6 }
%"class.OopStorage::ParState" = type { %"class.OopStorage::BasicParState" }
%"class.OopStorage::BasicParState" = type { ptr, ptr, i64, i64, i32, i8, i64 }
%class.ValueObjBlock.6 = type { %"class.OopStorage::ParState", %class.ValueObjBlock.7 }
%class.ValueObjBlock.7 = type { %"class.OopStorage::ParState", %class.ValueObjBlock.8 }
%class.ValueObjBlock.8 = type { %"class.OopStorage::ParState", %class.ValueObjBlock.9 }
%class.ValueObjBlock.9 = type <{ %"class.OopStorage::ParState", %class.ValueObjBlock.10, [7 x i8] }>
%class.ValueObjBlock.10 = type { i8 }
%class.XParallelApply.12 = type { %class.XStrongCLDsIterator, i8 }
%class.XStrongCLDsIterator = type { i8 }
%class.XParallelApply.13 = type <{ %class.XJavaThreadsIterator, i8, [7 x i8] }>
%class.XJavaThreadsIterator = type { %class.ThreadsListHandle, i32, [4 x i8] }
%class.ThreadsListHandle = type { %class.SafeThreadsListPtr, %class.elapsedTimer }
%class.SafeThreadsListPtr = type <{ ptr, ptr, ptr, i8, i8, [6 x i8] }>
%class.elapsedTimer = type <{ i64, i64, i8, [7 x i8] }>
%class.XParallelApply.15 = type { %class.XNMethodsIterator, i8 }
%class.XNMethodsIterator = type { i8 }
%class.XMarkOopClosure = type { %class.OopClosure }
%class.ClaimingCLDToOopClosure = type { %class.CLDToOopClosure.base, [4 x i8] }
%class.CLDToOopClosure.base = type <{ %class.CLDClosure, ptr, i32 }>
%class.CLDClosure = type { ptr }
%class.XMarkThreadClosure = type { %class.ThreadClosure, ptr }
%class.XMarkNMethodClosure = type { %class.NMethodClosure, ptr }
%class.NMethodClosure = type { ptr }
%class.XMarkTask = type { %class.XTask, ptr, i64 }
%class.CLDToOopClosure = type <{ %class.CLDClosure, ptr, i32, [4 x i8] }>

@_ZTV13ThreadClosure = linkonce_odr hidden unnamed_addr constant { [3 x ptr] } { [3 x ptr] [ptr null, ptr null, ptr @__cxa_pure_virtual] }, comdat, align 8
@.str.26 = private unnamed_addr constant [15 x i8] c"XMarkRootsTask\00", align 1
@_ZTV14XMarkRootsTask = linkonce_odr hidden unnamed_addr constant { [3 x ptr] } { [3 x ptr] [ptr null, ptr null, ptr @_ZN14XMarkRootsTask4workEv] }, comdat, align 8
@ClassLoaderDataGraph_lock = external global ptr, align 8
@_ZTV15XMarkOopClosure = linkonce_odr hidden unnamed_addr constant { [4 x ptr] } { [4 x ptr] [ptr null, ptr null, ptr @_ZN15XMarkOopClosure6do_oopEPP7oopDesc, ptr @_ZN15XMarkOopClosure6do_oopEP9narrowOop] }, comdat, align 8
@_ZTV10OopClosure = linkonce_odr hidden unnamed_addr constant { [4 x ptr] } { [4 x ptr] [ptr null, ptr null, ptr @__cxa_pure_virtual, ptr @__cxa_pure_virtual] }, comdat, align 8
@_ZTV23ClaimingCLDToOopClosureILi3EE = linkonce_odr hidden unnamed_addr constant { [3 x ptr] } { [3 x ptr] [ptr null, ptr null, ptr @_ZN15CLDToOopClosure6do_cldEP15ClassLoaderData] }, comdat, align 8
@_ZTV15CLDToOopClosure = external unnamed_addr constant { [3 x ptr] }, align 8
@_ZTV10CLDClosure = linkonce_odr hidden unnamed_addr constant { [3 x ptr] } { [3 x ptr] [ptr null, ptr null, ptr @__cxa_pure_virtual] }, comdat, align 8
@_ZTV18XMarkThreadClosure = linkonce_odr hidden unnamed_addr constant { [3 x ptr] } { [3 x ptr] [ptr null, ptr null, ptr @_ZN18XMarkThreadClosure9do_threadEP6Thread] }, comdat, align 8
@_ZTV19XMarkNMethodClosure = linkonce_odr hidden unnamed_addr constant { [3 x ptr] } { [3 x ptr] [ptr null, ptr null, ptr @_ZN19XMarkNMethodClosure10do_nmethodEP7nmethod] }, comdat, align 8
@_ZTV14NMethodClosure = linkonce_odr hidden unnamed_addr constant { [3 x ptr] } { [3 x ptr] [ptr null, ptr null, ptr @__cxa_pure_virtual] }, comdat, align 8
@.str.27 = private unnamed_addr constant [10 x i8] c"XMarkTask\00", align 1
@_ZTV9XMarkTask = linkonce_odr hidden unnamed_addr constant { [3 x ptr] } { [3 x ptr] [ptr null, ptr null, ptr @_ZN9XMarkTask4workEv] }, comdat, align 8

; Function Attrs: mustprogress nounwind uwtable
define linkonce_odr hidden void @_ZN10CLDClosureC2Ev(ptr noundef nonnull align 8 dereferenceable(8) %0) unnamed_addr #1 comdat align 2 {
  %2 = alloca ptr, align 8
  store ptr %0, ptr %2, align 8
  %3 = load ptr, ptr %2, align 8
  store ptr getelementptr inbounds inrange(-16, 8) ({ [3 x ptr] }, ptr @_ZTV10CLDClosure, i32 0, i32 0, i32 2), ptr %3, align 8
  ret void
}

; Function Attrs: mustprogress nounwind uwtable
define linkonce_odr hidden void @_ZN14XMarkTerminate5resetEj(ptr noundef nonnull align 64 dereferenceable(72) %0, i32 noundef %1) #1 comdat align 2 {
  %3 = alloca ptr, align 8
  %4 = alloca i32, align 4
  store ptr %0, ptr %3, align 8
  store i32 %1, ptr %4, align 4
  %5 = load ptr, ptr %3, align 8
  %6 = load i32, ptr %4, align 4
  %7 = getelementptr inbounds %class.XMarkTerminate, ptr %5, i32 0, i32 3
  store volatile i32 %6, ptr %7, align 4
  %8 = load volatile i32, ptr %7, align 4
  %9 = getelementptr inbounds %class.XMarkTerminate, ptr %5, i32 0, i32 2
  store volatile i32 %8, ptr %9, align 64
  %10 = load volatile i32, ptr %9, align 64
  %11 = getelementptr inbounds %class.XMarkTerminate, ptr %5, i32 0, i32 0
  store i32 %10, ptr %11, align 64
  ret void
}

; Function Attrs: mustprogress nounwind uwtable
define linkonce_odr hidden void @_ZN14NMethodClosureC2Ev(ptr noundef nonnull align 8 dereferenceable(8) %0) unnamed_addr #1 comdat align 2 {
  %2 = alloca ptr, align 8
  store ptr %0, ptr %2, align 8
  %3 = load ptr, ptr %2, align 8
  store ptr getelementptr inbounds inrange(-16, 8) ({ [3 x ptr] }, ptr @_ZTV14NMethodClosure, i32 0, i32 0, i32 2), ptr %3, align 8
  ret void
}

; Function Attrs: mustprogress nounwind uwtable
define linkonce_odr hidden void @_ZN13ThreadClosureC2Ev(ptr noundef nonnull align 8 dereferenceable(8) %0) unnamed_addr #1 comdat align 2 {
  %2 = alloca ptr, align 8
  store ptr %0, ptr %2, align 8
  %3 = load ptr, ptr %2, align 8
  store ptr getelementptr inbounds inrange(-16, 8) ({ [3 x ptr] }, ptr @_ZTV13ThreadClosure, i32 0, i32 0, i32 2), ptr %3, align 8
  ret void
}

; Function Attrs: mustprogress nounwind uwtable
define linkonce_odr hidden void @_ZN15CLDToOopClosureC2EP10OopClosurei(ptr noundef nonnull align 8 dereferenceable(20) %0, ptr noundef %1, i32 noundef %2) unnamed_addr #1 comdat align 2 {
  %4 = alloca ptr, align 8
  %5 = alloca ptr, align 8
  %6 = alloca i32, align 4
  store ptr %0, ptr %4, align 8
  store ptr %1, ptr %5, align 8
  store i32 %2, ptr %6, align 4
  %7 = load ptr, ptr %4, align 8
  call void @_ZN10CLDClosureC2Ev(ptr noundef nonnull align 8 dereferenceable(8) %7) #11
  store ptr getelementptr inbounds inrange(-16, 8) ({ [3 x ptr] }, ptr @_ZTV15CLDToOopClosure, i32 0, i32 0, i32 2), ptr %7, align 8
  %8 = getelementptr inbounds %class.CLDToOopClosure, ptr %7, i32 0, i32 1
  %9 = load ptr, ptr %5, align 8
  store ptr %9, ptr %8, align 8
  %10 = getelementptr inbounds %class.CLDToOopClosure, ptr %7, i32 0, i32 2
  %11 = load i32, ptr %6, align 4
  store i32 %11, ptr %10, align 8
  ret void
}

; Function Attrs: mustprogress nounwind uwtable
define linkonce_odr hidden void @_ZN10OopClosureC2Ev(ptr noundef nonnull align 8 dereferenceable(8) %0) unnamed_addr #1 comdat align 2 {
  %2 = alloca ptr, align 8
  store ptr %0, ptr %2, align 8
  %3 = load ptr, ptr %2, align 8
  store ptr getelementptr inbounds inrange(-16, 16) ({ [4 x ptr] }, ptr @_ZTV10OopClosure, i32 0, i32 0, i32 2), ptr %3, align 8
  ret void
}

; Function Attrs: mustprogress nounwind uwtable
define hidden void @_ZN5XMark11finish_workEv(ptr noundef nonnull align 64 dereferenceable(2492) %0) #1 align 2 {
  %2 = alloca ptr, align 8
  store ptr %0, ptr %2, align 8
  %3 = load ptr, ptr %2, align 8
  %4 = getelementptr inbounds %class.XMark, ptr %3, i32 0, i32 8
  %5 = load volatile i64, ptr %4, align 8
  %6 = getelementptr inbounds %class.XMark, ptr %3, i32 0, i32 10
  %7 = load i64, ptr %6, align 8
  %8 = add i64 %7, %5
  store i64 %8, ptr %6, align 8
  %9 = getelementptr inbounds %class.XMark, ptr %3, i32 0, i32 9
  %10 = load volatile i64, ptr %9, align 16
  %11 = getelementptr inbounds %class.XMark, ptr %3, i32 0, i32 11
  %12 = load i64, ptr %11, align 32
  %13 = add i64 %12, %10
  store i64 %13, ptr %11, align 32
  ret void
}

; Function Attrs: mustprogress nounwind uwtable
define hidden void @_ZN5XMark12prepare_workEv(ptr noundef nonnull align 64 dereferenceable(2492) %0) #1 align 2 {
  %2 = alloca ptr, align 8
  store ptr %0, ptr %2, align 8
  %3 = load ptr, ptr %2, align 8
  %4 = getelementptr inbounds %class.XMark, ptr %3, i32 0, i32 5
  %5 = getelementptr inbounds %class.XMark, ptr %3, i32 0, i32 14
  %6 = load i32, ptr %5, align 8
  call void @_ZN14XMarkTerminate5resetEj(ptr noundef nonnull align 64 dereferenceable(72) %4, i32 noundef %6)
  %7 = getelementptr inbounds %class.XMark, ptr %3, i32 0, i32 9
  store volatile i64 0, ptr %7, align 16
  %8 = load volatile i64, ptr %7, align 16
  %9 = getelementptr inbounds %class.XMark, ptr %3, i32 0, i32 8
  store volatile i64 %8, ptr %9, align 8
  %10 = getelementptr inbounds %class.XMark, ptr %3, i32 0, i32 6
  store volatile i8 1, ptr %10, align 64
  ret void
}

; Function Attrs: mustprogress nounwind uwtable
define linkonce_odr hidden void @_ZN19XMarkNMethodClosureC2EP10OopClosure(ptr noundef nonnull align 8 dereferenceable(16) %0, ptr noundef %1) unnamed_addr #1 comdat align 2 {
  %3 = alloca ptr, align 8
  %4 = alloca ptr, align 8
  store ptr %0, ptr %3, align 8
  store ptr %1, ptr %4, align 8
  %5 = load ptr, ptr %3, align 8
  call void @_ZN14NMethodClosureC2Ev(ptr noundef nonnull align 8 dereferenceable(8) %5) #11
  store ptr getelementptr inbounds inrange(-16, 8) ({ [3 x ptr] }, ptr @_ZTV19XMarkNMethodClosure, i32 0, i32 0, i32 2), ptr %5, align 8
  %6 = getelementptr inbounds %class.XMarkNMethodClosure, ptr %5, i32 0, i32 1
  %7 = load ptr, ptr %4, align 8
  store ptr %7, ptr %6, align 8
  ret void
}

; Function Attrs: mustprogress nounwind uwtable
define linkonce_odr hidden void @_ZN18XMarkThreadClosureC2EP10OopClosure(ptr noundef nonnull align 8 dereferenceable(16) %0, ptr noundef %1) unnamed_addr #1 comdat align 2 {
  %3 = alloca ptr, align 8
  %4 = alloca ptr, align 8
  store ptr %0, ptr %3, align 8
  store ptr %1, ptr %4, align 8
  %5 = load ptr, ptr %3, align 8
  call void @_ZN13ThreadClosureC2Ev(ptr noundef nonnull align 8 dereferenceable(8) %5) #11
  store ptr getelementptr inbounds inrange(-16, 8) ({ [3 x ptr] }, ptr @_ZTV18XMarkThreadClosure, i32 0, i32 0, i32 2), ptr %5, align 8
  %6 = getelementptr inbounds %class.XMarkThreadClosure, ptr %5, i32 0, i32 1
  %7 = load ptr, ptr %4, align 8
  store ptr %7, ptr %6, align 8
  call void @_ZN23XThreadLocalAllocBuffer16reset_statisticsEv()
  ret void
}

; Function Attrs: mustprogress nounwind uwtable
define linkonce_odr hidden void @_ZN23ClaimingCLDToOopClosureILi3EEC2EP10OopClosure(ptr noundef nonnull align 8 dereferenceable(20) %0, ptr noundef %1) unnamed_addr #1 comdat align 2 {
  %3 = alloca ptr, align 8
  %4 = alloca ptr, align 8
  store ptr %0, ptr %3, align 8
  store ptr %1, ptr %4, align 8
  %5 = load ptr, ptr %3, align 8
  %6 = load ptr, ptr %4, align 8
  call void @_ZN15CLDToOopClosureC2EP10OopClosurei(ptr noundef nonnull align 8 dereferenceable(20) %5, ptr noundef %6, i32 noundef 3)
  store ptr getelementptr inbounds inrange(-16, 8) ({ [3 x ptr] }, ptr @_ZTV23ClaimingCLDToOopClosureILi3EE, i32 0, i32 0, i32 2), ptr %5, align 8
  ret void
}

; Function Attrs: mustprogress nounwind uwtable
define linkonce_odr hidden void @_ZN15XMarkOopClosureC2Ev(ptr noundef nonnull align 8 dereferenceable(8) %0) unnamed_addr #1 comdat align 2 {
  %2 = alloca ptr, align 8
  store ptr %0, ptr %2, align 8
  %3 = load ptr, ptr %2, align 8
  call void @_ZN10OopClosureC2Ev(ptr noundef nonnull align 8 dereferenceable(8) %3) #11
  store ptr getelementptr inbounds inrange(-16, 16) ({ [4 x ptr] }, ptr @_ZTV15XMarkOopClosure, i32 0, i32 0, i32 2), ptr %3, align 8
  ret void
}

; Function Attrs: mustprogress nounwind uwtable
define linkonce_odr hidden void @_ZN26SuspendibleThreadSetJoinerC2Eb(ptr noundef nonnull align 1 dereferenceable(1) %0, i1 noundef zeroext %1) unnamed_addr #1 comdat align 2 {
  %3 = alloca ptr, align 8
  %4 = alloca i8, align 1
  store ptr %0, ptr %3, align 8
  %5 = zext i1 %1 to i8
  store i8 %5, ptr %4, align 1
  %6 = load ptr, ptr %3, align 8
  %7 = getelementptr inbounds %class.SuspendibleThreadSetJoiner, ptr %6, i32 0, i32 0
  %8 = load i8, ptr %4, align 1
  %9 = trunc i8 %8 to i1
  %10 = zext i1 %9 to i8
  store i8 %10, ptr %7, align 1
  %11 = getelementptr inbounds %class.SuspendibleThreadSetJoiner, ptr %6, i32 0, i32 0
  %12 = load i8, ptr %11, align 1
  %13 = trunc i8 %12 to i1
  br i1 %13, label %14, label %15

14:                                               ; preds = %2
  call void @_ZN20SuspendibleThreadSet4joinEv()
  br label %15

15:                                               ; preds = %14, %2
  ret void
}

; Function Attrs: mustprogress nounwind uwtable
define linkonce_odr hidden void @_ZN9XMarkTaskD2Ev(ptr noundef nonnull align 8 dereferenceable(56) %0) unnamed_addr #1 comdat align 2 {
  %2 = alloca ptr, align 8
  store ptr %0, ptr %2, align 8
  %3 = load ptr, ptr %2, align 8
  store ptr getelementptr inbounds inrange(-16, 8) ({ [3 x ptr] }, ptr @_ZTV9XMarkTask, i32 0, i32 0, i32 2), ptr %3, align 8
  %4 = getelementptr inbounds %class.XMarkTask, ptr %3, i32 0, i32 1
  %5 = load ptr, ptr %4, align 8
  call void @_ZN5XMark11finish_workEv(ptr noundef nonnull align 64 dereferenceable(2492) %5)
  ret void
}

; Function Attrs: mustprogress nounwind uwtable
define linkonce_odr hidden void @_ZN9XMarkTaskC2EP5XMarkm(ptr noundef nonnull align 8 dereferenceable(56) %0, ptr noundef %1, i64 noundef %2) unnamed_addr #1 comdat align 2 {
  %4 = alloca ptr, align 8
  %5 = alloca ptr, align 8
  %6 = alloca i64, align 8
  store ptr %0, ptr %4, align 8
  store ptr %1, ptr %5, align 8
  store i64 %2, ptr %6, align 8
  %7 = load ptr, ptr %4, align 8
  call void @_ZN5XTaskC2EPKc(ptr noundef nonnull align 8 dereferenceable(40) %7, ptr noundef @.str.27)
  store ptr getelementptr inbounds inrange(-16, 8) ({ [3 x ptr] }, ptr @_ZTV9XMarkTask, i32 0, i32 0, i32 2), ptr %7, align 8
  %8 = getelementptr inbounds %class.XMarkTask, ptr %7, i32 0, i32 1
  %9 = load ptr, ptr %5, align 8
  store ptr %9, ptr %8, align 8
  %10 = getelementptr inbounds %class.XMarkTask, ptr %7, i32 0, i32 2
  %11 = load i64, ptr %6, align 8
  store i64 %11, ptr %10, align 8
  %12 = getelementptr inbounds %class.XMarkTask, ptr %7, i32 0, i32 1
  %13 = load ptr, ptr %12, align 8
  call void @_ZN5XMark12prepare_workEv(ptr noundef nonnull align 64 dereferenceable(2492) %13)
  ret void
}

; Function Attrs: mustprogress nounwind uwtable
define linkonce_odr hidden void @_ZN14XMarkRootsTaskC2EP5XMark(ptr noundef nonnull align 8 dereferenceable(504) %0, ptr noundef %1) unnamed_addr #1 comdat align 2 {
  %3 = alloca ptr, align 8
  %4 = alloca ptr, align 8
  store ptr %0, ptr %3, align 8
  store ptr %1, ptr %4, align 8
  %5 = load ptr, ptr %3, align 8
  call void @_ZN5XTaskC2EPKc(ptr noundef nonnull align 8 dereferenceable(40) %5, ptr noundef @.str.26)
  store ptr getelementptr inbounds inrange(-16, 8) ({ [3 x ptr] }, ptr @_ZTV14XMarkRootsTask, i32 0, i32 0, i32 2), ptr %5, align 8
  %6 = getelementptr inbounds %class.XMarkRootsTask, ptr %5, i32 0, i32 1
  %7 = load ptr, ptr %4, align 8
  store ptr %7, ptr %6, align 8
  %8 = getelementptr inbounds %class.XMarkRootsTask, ptr %5, i32 0, i32 2
  call void @_ZN26SuspendibleThreadSetJoinerC2Eb(ptr noundef nonnull align 1 dereferenceable(1) %8, i1 noundef zeroext true)
  %9 = getelementptr inbounds %class.XMarkRootsTask, ptr %5, i32 0, i32 4
  call void @_ZN14XRootsIteratorC1Ei(ptr noundef nonnull align 8 dereferenceable(378) %9, i32 noundef 3)
  %10 = getelementptr inbounds %class.XMarkRootsTask, ptr %5, i32 0, i32 5
  call void @llvm.memset.p0.i64(ptr align 8 %10, i8 0, i64 8, i1 false)
  call void @_ZN15XMarkOopClosureC2Ev(ptr noundef nonnull align 8 dereferenceable(8) %10) #11
  %11 = getelementptr inbounds %class.XMarkRootsTask, ptr %5, i32 0, i32 6
  %12 = getelementptr inbounds %class.XMarkRootsTask, ptr %5, i32 0, i32 5
  call void @_ZN23ClaimingCLDToOopClosureILi3EEC2EP10OopClosure(ptr noundef nonnull align 8 dereferenceable(20) %11, ptr noundef %12)
  %13 = getelementptr inbounds %class.XMarkRootsTask, ptr %5, i32 0, i32 7
  %14 = getelementptr inbounds %class.XMarkRootsTask, ptr %5, i32 0, i32 5
  call void @_ZN18XMarkThreadClosureC2EP10OopClosure(ptr noundef nonnull align 8 dereferenceable(16) %13, ptr noundef %14)
  %15 = getelementptr inbounds %class.XMarkRootsTask, ptr %5, i32 0, i32 8
  %16 = getelementptr inbounds %class.XMarkRootsTask, ptr %5, i32 0, i32 5
  call void @_ZN19XMarkNMethodClosureC2EP10OopClosure(ptr noundef nonnull align 8 dereferenceable(16) %15, ptr noundef %16)
  %17 = load ptr, ptr @ClassLoaderDataGraph_lock, align 8
  call void @_ZN5Mutex4lockEv(ptr noundef nonnull align 8 dereferenceable(104) %17)
  ret void
}

; Function Attrs: mustprogress nounwind uwtable
define hidden void @_ZN5XMark4markEb(ptr noundef nonnull align 64 dereferenceable(2492) %0, i1 noundef zeroext %1) #1 align 2 {
  %3 = alloca ptr, align 8
  %4 = alloca i8, align 1
  %5 = alloca %class.XMarkRootsTask, align 8
  %6 = alloca %class.XMarkTask, align 8
  store ptr %0, ptr %3, align 8
  %7 = zext i1 %1 to i8
  store i8 %7, ptr %4, align 1
  %8 = load ptr, ptr %3, align 8
  %9 = load i8, ptr %4, align 1
  %10 = trunc i8 %9 to i1
  br i1 %10, label %11, label %14

11:                                               ; preds = %2
  call void @_ZN14XMarkRootsTaskC2EP5XMark(ptr noundef nonnull align 8 dereferenceable(504) %5, ptr noundef %8)
  %12 = getelementptr inbounds %class.XMark, ptr %8, i32 0, i32 0
  %13 = load ptr, ptr %12, align 64
  call void @_ZN8XWorkers3runEP5XTask(ptr noundef nonnull align 8 dereferenceable(120) %13, ptr noundef %5)
  call void @_ZN14XMarkRootsTaskD2Ev(ptr noundef nonnull align 8 dereferenceable(504) %5) #11
  br label %14

14:                                               ; preds = %11, %2
  call void @_ZN9XMarkTaskC2EP5XMarkm(ptr noundef nonnull align 8 dereferenceable(56) %6, ptr noundef %8, i64 noundef 0)
  %15 = getelementptr inbounds %class.XMark, ptr %8, i32 0, i32 0
  %16 = load ptr, ptr %15, align 64
  call void @_ZN8XWorkers3runEP5XTask(ptr noundef nonnull align 8 dereferenceable(120) %16, ptr noundef %6)
  call void @_ZN9XMarkTaskD2Ev(ptr noundef nonnull align 8 dereferenceable(56) %6) #11
  ret void
}