; Function Attrs: mustprogress nounwind uwtable
define hidden void @_ZN5XMark4markEb(ptr noundef nonnull align 64 dereferenceable(2492) %0, i1 noundef zeroext %1) local_unnamed_addr #0 align 2 {
  %3 = alloca %class.XMarkRootsTask, align 8
  %4 = alloca %class.XMarkTask, align 8
  br i1 %1, label %5, label %19

5:                                                ; preds = %2
  call void @_ZN5XTaskC2EPKc(ptr noundef nonnull align 8 dereferenceable(40) %3, ptr noundef nonnull @.str.26) #17
  store ptr getelementptr inbounds inrange(-16, 8) (i8, ptr @_ZTV14XMarkRootsTask, i64 16), ptr %3, align 8
  %6 = getelementptr inbounds i8, ptr %3, i64 40
  store ptr %0, ptr %6, align 8
  %7 = getelementptr inbounds i8, ptr %3, i64 48
  store i8 1, ptr %7, align 8
  call void @_ZN20SuspendibleThreadSet4joinEv() #17
  %8 = getelementptr inbounds i8, ptr %3, i64 56
  call void @_ZN14XRootsIteratorC1Ei(ptr noundef nonnull align 8 dereferenceable(378) %8, i32 noundef 3) #17
  %9 = getelementptr inbounds i8, ptr %3, i64 440
  store ptr getelementptr inbounds inrange(-16, 16) (i8, ptr @_ZTV15XMarkOopClosure, i64 16), ptr %9, align 8
  %10 = getelementptr inbounds i8, ptr %3, i64 448
  %11 = getelementptr inbounds i8, ptr %3, i64 456
  store ptr %9, ptr %11, align 8
  %12 = getelementptr inbounds i8, ptr %3, i64 464
  store i32 3, ptr %12, align 8
  store ptr getelementptr inbounds inrange(-16, 8) (i8, ptr @_ZTV23ClaimingCLDToOopClosureILi3EE, i64 16), ptr %10, align 8
  %13 = getelementptr inbounds i8, ptr %3, i64 472
  store ptr getelementptr inbounds inrange(-16, 8) (i8, ptr @_ZTV18XMarkThreadClosure, i64 16), ptr %13, align 8
  %14 = getelementptr inbounds i8, ptr %3, i64 480
  store ptr %9, ptr %14, align 8
  call void @_ZN23XThreadLocalAllocBuffer16reset_statisticsEv() #17
  %15 = getelementptr inbounds i8, ptr %3, i64 488
  store ptr getelementptr inbounds inrange(-16, 8) (i8, ptr @_ZTV19XMarkNMethodClosure, i64 16), ptr %15, align 8
  %16 = getelementptr inbounds i8, ptr %3, i64 496
  store ptr %9, ptr %16, align 8
  %17 = load ptr, ptr @ClassLoaderDataGraph_lock, align 8
  call void @_ZN5Mutex4lockEv(ptr noundef nonnull align 8 dereferenceable(104) %17) #17
  %18 = load ptr, ptr %0, align 64
  call void @_ZN8XWorkers3runEP5XTask(ptr noundef nonnull align 8 dereferenceable(120) %18, ptr noundef nonnull %3) #17
  call void @_ZN14XMarkRootsTaskD2Ev(ptr noundef nonnull align 8 dereferenceable(504) %3) #17
  br label %19

19:                                               ; preds = %5, %2
  call void @_ZN5XTaskC2EPKc(ptr noundef nonnull align 8 dereferenceable(40) %4, ptr noundef nonnull @.str.27) #17
  store ptr getelementptr inbounds inrange(-16, 8) (i8, ptr @_ZTV9XMarkTask, i64 16), ptr %4, align 8
  %20 = getelementptr inbounds i8, ptr %4, i64 40
  store ptr %0, ptr %20, align 8
  %21 = getelementptr inbounds i8, ptr %4, i64 48
  store i64 0, ptr %21, align 8
  %22 = getelementptr inbounds i8, ptr %0, i64 2304
  %23 = getelementptr inbounds i8, ptr %0, i64 2488
  %24 = load i32, ptr %23, align 8
  %25 = getelementptr inbounds i8, ptr %0, i64 2372
  store volatile i32 %24, ptr %25, align 4
  %26 = load volatile i32, ptr %25, align 4
  %27 = getelementptr inbounds i8, ptr %0, i64 2368
  store volatile i32 %26, ptr %27, align 64
  %28 = load volatile i32, ptr %27, align 64
  store i32 %28, ptr %22, align 64
  %29 = getelementptr inbounds i8, ptr %0, i64 2448
  store volatile i64 0, ptr %29, align 16
  %30 = load volatile i64, ptr %29, align 16
  %31 = getelementptr inbounds i8, ptr %0, i64 2440
  store volatile i64 %30, ptr %31, align 8
  %32 = getelementptr inbounds i8, ptr %0, i64 2432
  store volatile i8 1, ptr %32, align 64
  %33 = load ptr, ptr %0, align 64
  call void @_ZN8XWorkers3runEP5XTask(ptr noundef nonnull align 8 dereferenceable(120) %33, ptr noundef nonnull %4) #17
  %34 = load ptr, ptr %20, align 8
  %35 = getelementptr inbounds i8, ptr %34, i64 2440
  %36 = load volatile i64, ptr %35, align 8
  %37 = getelementptr inbounds i8, ptr %34, i64 2456
  %38 = load i64, ptr %37, align 8
  %39 = add i64 %38, %36
  store i64 %39, ptr %37, align 8
  %40 = getelementptr inbounds i8, ptr %34, i64 2448
  %41 = load volatile i64, ptr %40, align 16
  %42 = getelementptr inbounds i8, ptr %34, i64 2464
  %43 = load i64, ptr %42, align 32
  %44 = add i64 %43, %41
  store i64 %44, ptr %42, align 32
  ret void
}